target datalayout = "e-m:e-p270:32:32-p271:32:32-p272:64:64-i64:64-i128:128-f80:128-n8:16:32:64-S128"
target triple = "x86_64-pc-linux-gnu"

%struct.st_str_end_key = type { ptr, ptr }

; Function Attrs: nounwind uwtable
define internal i32 @str_end_hash(i64 noundef %0) #0 {
  %2 = alloca i64, align 8
  %3 = alloca ptr, align 8
  %4 = alloca ptr, align 8
  %5 = alloca i32, align 4
  store i64 %0, ptr %2, align 8, !tbaa !15
  call void @llvm.lifetime.start.p0(i64 8, ptr %3) #8
  %6 = load i64, ptr %2, align 8, !tbaa !15
  %7 = inttoptr i64 %6 to ptr
  store ptr %7, ptr %3, align 8, !tbaa !9
  call void @llvm.lifetime.start.p0(i64 8, ptr %4) #8
  call void @llvm.lifetime.start.p0(i64 4, ptr %5) #8
  store i32 0, ptr %5, align 4, !tbaa !10
  %8 = load ptr, ptr %3, align 8, !tbaa !9
  %9 = getelementptr inbounds nuw %struct.st_str_end_key, ptr %8, i32 0, i32 0
  %10 = load ptr, ptr %9, align 8, !tbaa !19
  store ptr %10, ptr %4, align 8, !tbaa !4
  br label %11

11:                                               ; preds = %17, %1
  %12 = load ptr, ptr %4, align 8, !tbaa !4
  %13 = load ptr, ptr %3, align 8, !tbaa !9
  %14 = getelementptr inbounds nuw %struct.st_str_end_key, ptr %13, i32 0, i32 1
  %15 = load ptr, ptr %14, align 8, !tbaa !17
  %16 = icmp ult ptr %12, %15
  br i1 %16, label %17, label %25

17:                                               ; preds = %11
  %18 = load i32, ptr %5, align 4, !tbaa !10
  %19 = mul i32 %18, 997
  %20 = load ptr, ptr %4, align 8, !tbaa !4
  %21 = getelementptr inbounds nuw i8, ptr %20, i32 1
  store ptr %21, ptr %4, align 8, !tbaa !4
  %22 = load i8, ptr %20, align 1, !tbaa !12
  %23 = zext i8 %22 to i32
  %24 = add i32 %19, %23
  store i32 %24, ptr %5, align 4, !tbaa !10
  br label %11, !llvm.loop !21

25:                                               ; preds = %11
  %26 = load i32, ptr %5, align 4, !tbaa !10
  %27 = load i32, ptr %5, align 4, !tbaa !10
  %28 = lshr i32 %27, 5
  %29 = add i32 %26, %28
  call void @llvm.lifetime.end.p0(i64 4, ptr %5) #8
  call void @llvm.lifetime.end.p0(i64 8, ptr %4) #8
  call void @llvm.lifetime.end.p0(i64 8, ptr %3) #8
  ret i32 %29
}