; Function Attrs: nofree norecurse nosync nounwind memory(read, inaccessiblemem: none) uwtable
define internal i32 @str_end_hash(i64 noundef %0) #8 {
  %2 = inttoptr i64 %0 to ptr
  %3 = load ptr, ptr %2, align 8, !tbaa !16
  %4 = getelementptr inbounds nuw i8, ptr %2, i64 8
  %5 = load ptr, ptr %4, align 8, !tbaa !13
  %6 = icmp ult ptr %3, %5
  br i1 %6, label %.lr.ph, label %._crit_edge

.lr.ph:                                           ; preds = %1, %.lr.ph
  %.09 = phi i32 [ %11, %.lr.ph ], [ 0, %1 ]
  %.078 = phi ptr [ %8, %.lr.ph ], [ %3, %1 ]
  %7 = mul i32 %.09, 997
  %8 = getelementptr inbounds nuw i8, ptr %.078, i64 1
  %9 = load i8, ptr %.078, align 1, !tbaa !10
  %10 = zext i8 %9 to i32
  %11 = add i32 %7, %10
  %exitcond.not = icmp eq ptr %8, %5
  br i1 %exitcond.not, label %._crit_edge, label %.lr.ph, !llvm.loop !18

._crit_edge:                                      ; preds = %.lr.ph, %1
  %.0.lcssa = phi i32 [ 0, %1 ], [ %11, %.lr.ph ]
  %12 = lshr i32 %.0.lcssa, 5
  %13 = add i32 %12, %.0.lcssa
  ret i32 %13
}